; Function Attrs: nounwind uwtable
define range(i32 -1, 127) i32 @arkButcherTableDIRKNameToID(ptr noundef readonly captures(none) %0) local_unnamed_addr #0 {
  %2 = tail call i32 @strcmp(ptr noundef nonnull dereferenceable(17) @.str.2, ptr noundef nonnull dereferenceable(1) %0) #4
  %3 = icmp eq i32 %2, 0
  br i1 %3, label %86, label %4

4:                                                ; preds = %1
  %5 = tail call i32 @strcmp(ptr noundef nonnull dereferenceable(26) @.str.3, ptr noundef nonnull dereferenceable(1) %0) #4
  %6 = icmp eq i32 %5, 0
  br i1 %6, label %86, label %7

7:                                                ; preds = %4
  %8 = tail call i32 @strcmp(ptr noundef nonnull dereferenceable(19) @.str.4, ptr noundef nonnull dereferenceable(1) %0) #4
  %9 = icmp eq i32 %8, 0
  br i1 %9, label %86, label %10

10:                                               ; preds = %7
  %11 = tail call i32 @strcmp(ptr noundef nonnull dereferenceable(23) @.str.5, ptr noundef nonnull dereferenceable(1) %0) #4
  %12 = icmp eq i32 %11, 0
  br i1 %12, label %86, label %13

13:                                               ; preds = %10
  %14 = tail call i32 @strcmp(ptr noundef nonnull dereferenceable(29) @.str.6, ptr noundef nonnull dereferenceable(1) %0) #4
  %15 = icmp eq i32 %14, 0
  br i1 %15, label %86, label %16

16:                                               ; preds = %13
  %17 = tail call i32 @strcmp(ptr noundef nonnull dereferenceable(32) @.str.7, ptr noundef nonnull dereferenceable(1) %0) #4
  %18 = icmp eq i32 %17, 0
  br i1 %18, label %86, label %19

19:                                               ; preds = %16
  %20 = tail call i32 @strcmp(ptr noundef nonnull dereferenceable(24) @.str.8, ptr noundef nonnull dereferenceable(1) %0) #4
  %21 = icmp eq i32 %20, 0
  br i1 %21, label %86, label %22

22:                                               ; preds = %19
  %23 = tail call i32 @strcmp(ptr noundef nonnull dereferenceable(20) @.str.9, ptr noundef nonnull dereferenceable(1) %0) #4
  %24 = icmp eq i32 %23, 0
  br i1 %24, label %86, label %25

25:                                               ; preds = %22
  %26 = tail call i32 @strcmp(ptr noundef nonnull dereferenceable(21) @.str.10, ptr noundef nonnull dereferenceable(1) %0) #4
  %27 = icmp eq i32 %26, 0
  br i1 %27, label %86, label %28

28:                                               ; preds = %25
  %29 = tail call i32 @strcmp(ptr noundef nonnull dereferenceable(29) @.str.11, ptr noundef nonnull dereferenceable(1) %0) #4
  %30 = icmp eq i32 %29, 0
  br i1 %30, label %86, label %31

31:                                               ; preds = %28
  %32 = tail call i32 @strcmp(ptr noundef nonnull dereferenceable(18) @.str.12, ptr noundef nonnull dereferenceable(1) %0) #4
  %33 = icmp eq i32 %32, 0
  br i1 %33, label %86, label %34

34:                                               ; preds = %31
  %35 = tail call i32 @strcmp(ptr noundef nonnull dereferenceable(18) @.str.13, ptr noundef nonnull dereferenceable(1) %0) #4
  %36 = icmp eq i32 %35, 0
  br i1 %36, label %86, label %37

37:                                               ; preds = %34
  %38 = tail call i32 @strcmp(ptr noundef nonnull dereferenceable(19) @.str.14, ptr noundef nonnull dereferenceable(1) %0) #4
  %39 = icmp eq i32 %38, 0
  br i1 %39, label %86, label %40

40:                                               ; preds = %37
  %41 = tail call i32 @strcmp(ptr noundef nonnull dereferenceable(21) @.str.15, ptr noundef nonnull dereferenceable(1) %0) #4
  %42 = icmp eq i32 %41, 0
  br i1 %42, label %86, label %43

43:                                               ; preds = %40
  %44 = tail call i32 @strcmp(ptr noundef nonnull dereferenceable(29) @.str.16, ptr noundef nonnull dereferenceable(1) %0) #4
  %45 = icmp eq i32 %44, 0
  br i1 %45, label %86, label %46

46:                                               ; preds = %43
  %47 = tail call i32 @strcmp(ptr noundef nonnull dereferenceable(29) @.str.17, ptr noundef nonnull dereferenceable(1) %0) #4
  %48 = icmp eq i32 %47, 0
  br i1 %48, label %86, label %49

49:                                               ; preds = %46
  %50 = tail call i32 @strcmp(ptr noundef nonnull dereferenceable(21) @.str.18, ptr noundef nonnull dereferenceable(1) %0) #4
  %51 = icmp eq i32 %50, 0
  br i1 %51, label %86, label %52

52:                                               ; preds = %49
  %53 = tail call i32 @strcmp(ptr noundef nonnull dereferenceable(29) @.str.19, ptr noundef nonnull dereferenceable(1) %0) #4
  %54 = icmp eq i32 %53, 0
  br i1 %54, label %86, label %55

55:                                               ; preds = %52
  %56 = tail call i32 @strcmp(ptr noundef nonnull dereferenceable(30) @.str.20, ptr noundef nonnull dereferenceable(1) %0) #4
  %57 = icmp eq i32 %56, 0
  br i1 %57, label %86, label %58

58:                                               ; preds = %55
  %59 = tail call i32 @strcmp(ptr noundef nonnull dereferenceable(27) @.str.21, ptr noundef nonnull dereferenceable(1) %0) #4
  %60 = icmp eq i32 %59, 0
  br i1 %60, label %86, label %61

61:                                               ; preds = %58
  %62 = tail call i32 @strcmp(ptr noundef nonnull dereferenceable(27) @.str.22, ptr noundef nonnull dereferenceable(1) %0) #4
  %63 = icmp eq i32 %62, 0
  br i1 %63, label %86, label %64

64:                                               ; preds = %61
  %65 = tail call i32 @strcmp(ptr noundef nonnull dereferenceable(28) @.str.23, ptr noundef nonnull dereferenceable(1) %0) #4
  %66 = icmp eq i32 %65, 0
  br i1 %66, label %86, label %67

67:                                               ; preds = %64
  %68 = tail call i32 @strcmp(ptr noundef nonnull dereferenceable(27) @.str.24, ptr noundef nonnull dereferenceable(1) %0) #4
  %69 = icmp eq i32 %68, 0
  br i1 %69, label %86, label %70

70:                                               ; preds = %67
  %71 = tail call i32 @strcmp(ptr noundef nonnull dereferenceable(28) @.str.25, ptr noundef nonnull dereferenceable(1) %0) #4
  %72 = icmp eq i32 %71, 0
  br i1 %72, label %86, label %73

73:                                               ; preds = %70
  %74 = tail call i32 @strcmp(ptr noundef nonnull dereferenceable(28) @.str.26, ptr noundef nonnull dereferenceable(1) %0) #4
  %75 = icmp eq i32 %74, 0
  br i1 %75, label %86, label %76

76:                                               ; preds = %73
  %77 = tail call i32 @strcmp(ptr noundef nonnull dereferenceable(27) @.str.27, ptr noundef nonnull dereferenceable(1) %0) #4
  %78 = icmp eq i32 %77, 0
  br i1 %78, label %86, label %79

79:                                               ; preds = %76
  %80 = tail call i32 @strcmp(ptr noundef nonnull dereferenceable(27) @.str.28, ptr noundef nonnull dereferenceable(1) %0) #4
  %81 = icmp eq i32 %80, 0
  br i1 %81, label %86, label %82

82:                                               ; preds = %79
  %83 = tail call i32 @strcmp(ptr noundef nonnull dereferenceable(28) @.str.29, ptr noundef nonnull dereferenceable(1) %0) #4
  %84 = icmp eq i32 %83, 0
  br i1 %84, label %86, label %85

85:                                               ; preds = %82
  tail call void (ptr, i32, i32, ptr, ptr, ptr, ...) @arkProcessError(ptr noundef null, i32 noundef -22, i32 noundef 92, ptr noundef nonnull @__func__.arkButcherTableDIRKNameToID, ptr noundef nonnull @.str, ptr noundef nonnull @.str.1) #3
  br label %86

86:                                               ; preds = %82, %79, %76, %73, %70, %67, %64, %61, %58, %55, %52, %49, %46, %43, %40, %37, %34, %31, %28, %25, %22, %19, %16, %13, %10, %7, %4, %1, %85
  %.0 = phi i32 [ -1, %85 ], [ -1, %1 ], [ 124, %4 ], [ 100, %7 ], [ 123, %10 ], [ 125, %13 ], [ 126, %16 ], [ 101, %19 ], [ 102, %22 ], [ 103, %25 ], [ 104, %28 ], [ 105, %31 ], [ 106, %34 ], [ 107, %37 ], [ 108, %40 ], [ 109, %43 ], [ 112, %46 ], [ 110, %49 ], [ 111, %52 ], [ 113, %55 ], [ 114, %58 ], [ 115, %61 ], [ 116, %64 ], [ 117, %67 ], [ 118, %70 ], [ 119, %73 ], [ 120, %76 ], [ 121, %79 ], [ 122, %82 ]
  ret i32 %.0
}